target datalayout = "e-m:e-p270:32:32-p271:32:32-p272:64:64-i64:64-i128:128-f80:128-n8:16:32:64-S128"
target triple = "x86_64-unknown-linux-gnu"

%"class.folly::Range" = type { ptr, ptr }
%"class.folly::Try" = type { %"class.folly::detail::TryBase" }
%"class.folly::detail::TryBase" = type { i32, %union.anon.2 }
%union.anon.2 = type { %"class.std::vector.3" }
%"class.std::vector.3" = type { %"struct.std::_Vector_base.4" }
%"struct.std::_Vector_base.4" = type { %"struct.std::_Vector_base<std::pair<folly::Range<const char *>, std::vector<std::pair<folly::Range<const char *>, folly::Range<const char *>>>>, std::allocator<std::pair<folly::Range<const char *>, std::vector<std::pair<folly::Range<const char *>, folly::Range<const char *>>>>>>::_Vector_impl" }
%"struct.std::_Vector_base<std::pair<folly::Range<const char *>, std::vector<std::pair<folly::Range<const char *>, folly::Range<const char *>>>>, std::allocator<std::pair<folly::Range<const char *>, std::vector<std::pair<folly::Range<const char *>, folly::Range<const char *>>>>>>::_Vector_impl" = type { %"struct.std::_Vector_base<std::pair<folly::Range<const char *>, std::vector<std::pair<folly::Range<const char *>, folly::Range<const char *>>>>, std::allocator<std::pair<folly::Range<const char *>, std::vector<std::pair<folly::Range<const char *>, folly::Range<const char *>>>>>>::_Vector_impl_data" }
%"struct.std::_Vector_base<std::pair<folly::Range<const char *>, std::vector<std::pair<folly::Range<const char *>, folly::Range<const char *>>>>, std::allocator<std::pair<folly::Range<const char *>, std::vector<std::pair<folly::Range<const char *>, folly::Range<const char *>>>>>>::_Vector_impl_data" = type { ptr, ptr, ptr }
%"class.folly::exception_wrapper" = type { %"class.std::__exception_ptr::exception_ptr" }
%"class.std::__exception_ptr::exception_ptr" = type { ptr }

@__func__._ZNK5folly17exception_wrapper15throw_exceptionEv = private unnamed_addr constant [16 x i8] c"throw_exception\00", align 1

; Function Attrs: mustprogress nounwind uwtable
define linkonce_odr void @_ZNSt15__exception_ptr13exception_ptrD2Ev(ptr noundef nonnull align 8 dereferenceable(8) %this) unnamed_addr #1 comdat align 2 {
entry:
  %this.addr = alloca ptr, align 8
  store ptr %this, ptr %this.addr, align 8
  %this1 = load ptr, ptr %this.addr, align 8
  %_M_exception_object = getelementptr inbounds %"class.std::__exception_ptr::exception_ptr", ptr %this1, i32 0, i32 0
  %0 = load ptr, ptr %_M_exception_object, align 8
  %tobool = icmp ne ptr %0, null
  br i1 %tobool, label %if.then, label %if.end

if.then:                                          ; preds = %entry
  call void @_ZNSt15__exception_ptr13exception_ptr10_M_releaseEv(ptr noundef nonnull align 8 dereferenceable(8) %this1) #17
  br label %if.end

if.end:                                           ; preds = %if.then, %entry
  ret void
}

; Function Attrs: mustprogress nounwind uwtable
define linkonce_odr void @_ZNSt15__exception_ptr13exception_ptrC2ERKS0_(ptr noundef nonnull align 8 dereferenceable(8) %this, ptr noundef nonnull align 8 dereferenceable(8) %__other) unnamed_addr #1 comdat align 2 {
entry:
  %this.addr = alloca ptr, align 8
  %__other.addr = alloca ptr, align 8
  store ptr %this, ptr %this.addr, align 8
  store ptr %__other, ptr %__other.addr, align 8
  %this1 = load ptr, ptr %this.addr, align 8
  %_M_exception_object = getelementptr inbounds %"class.std::__exception_ptr::exception_ptr", ptr %this1, i32 0, i32 0
  %0 = load ptr, ptr %__other.addr, align 8
  %_M_exception_object2 = getelementptr inbounds %"class.std::__exception_ptr::exception_ptr", ptr %0, i32 0, i32 0
  %1 = load ptr, ptr %_M_exception_object2, align 8
  store ptr %1, ptr %_M_exception_object, align 8
  %_M_exception_object3 = getelementptr inbounds %"class.std::__exception_ptr::exception_ptr", ptr %this1, i32 0, i32 0
  %2 = load ptr, ptr %_M_exception_object3, align 8
  %tobool = icmp ne ptr %2, null
  br i1 %tobool, label %if.then, label %if.end

if.then:                                          ; preds = %entry
  call void @_ZNSt15__exception_ptr13exception_ptr9_M_addrefEv(ptr noundef nonnull align 8 dereferenceable(8) %this1) #17
  br label %if.end

if.end:                                           ; preds = %if.then, %entry
  ret void
}

; Function Attrs: mustprogress nounwind uwtable
define linkonce_odr noundef zeroext i1 @_ZNKSt15__exception_ptr13exception_ptrcvbEv(ptr noundef nonnull align 8 dereferenceable(8) %this) #1 comdat align 2 {
entry:
  %this.addr = alloca ptr, align 8
  store ptr %this, ptr %this.addr, align 8
  %this1 = load ptr, ptr %this.addr, align 8
  %_M_exception_object = getelementptr inbounds %"class.std::__exception_ptr::exception_ptr", ptr %this1, i32 0, i32 0
  %0 = load ptr, ptr %_M_exception_object, align 8
  %tobool = icmp ne ptr %0, null
  ret i1 %tobool
}

; Function Attrs: mustprogress noreturn uwtable
define linkonce_odr void @_ZNK5folly17exception_wrapper15throw_exceptionEv(ptr noundef nonnull align 8 dereferenceable(8) %this) #15 comdat align 2 personality ptr @__gxx_personality_v0 {
entry:
  %this.addr = alloca ptr, align 8
  %agg.tmp = alloca %"class.std::__exception_ptr::exception_ptr", align 8
  %cleanup.cond = alloca i1, align 1
  %exn.slot = alloca ptr, align 8
  %ehselector.slot = alloca i32, align 4
  store ptr %this, ptr %this.addr, align 8
  %this1 = load ptr, ptr %this.addr, align 8
  %ptr_ = getelementptr inbounds %"class.folly::exception_wrapper", ptr %this1, i32 0, i32 0
  %call = call noundef zeroext i1 @_ZNKSt15__exception_ptr13exception_ptrcvbEv(ptr noundef nonnull align 8 dereferenceable(8) %ptr_) #17
  store i1 false, ptr %cleanup.cond, align 1
  br i1 %call, label %cond.true, label %cond.false

cond.true:                                        ; preds = %entry
  %ptr_2 = getelementptr inbounds %"class.folly::exception_wrapper", ptr %this1, i32 0, i32 0
  call void @_ZNSt15__exception_ptr13exception_ptrC2ERKS0_(ptr noundef nonnull align 8 dereferenceable(8) %agg.tmp, ptr noundef nonnull align 8 dereferenceable(8) %ptr_2) #17
  store i1 true, ptr %cleanup.cond, align 1
  invoke void @_ZSt17rethrow_exceptionNSt15__exception_ptr13exception_ptrE(ptr noundef %agg.tmp) #22
          to label %invoke.cont unwind label %lpad

invoke.cont:                                      ; preds = %cond.true
  unreachable

lpad:                                             ; preds = %cond.false, %cond.true
  %0 = landingpad { ptr, i32 }
          cleanup
  %1 = extractvalue { ptr, i32 } %0, 0
  store ptr %1, ptr %exn.slot, align 8
  %2 = extractvalue { ptr, i32 } %0, 1
  store i32 %2, ptr %ehselector.slot, align 4
  %cleanup.is_active4 = load i1, ptr %cleanup.cond, align 1
  br i1 %cleanup.is_active4, label %cleanup.action5, label %cleanup.done6

3:                                                ; No predecessors!
  br label %cond.end

cond.false:                                       ; preds = %entry
  invoke void @_ZN5folly17exception_wrapper18onNoExceptionErrorEPKc(ptr noundef @__func__._ZNK5folly17exception_wrapper15throw_exceptionEv) #22
          to label %invoke.cont3 unwind label %lpad

invoke.cont3:                                     ; preds = %cond.false
  unreachable

4:                                                ; No predecessors!
  br label %cond.end

cond.end:                                         ; preds = %4, %3
  %cleanup.is_active = load i1, ptr %cleanup.cond, align 1
  br i1 %cleanup.is_active, label %cleanup.action, label %cleanup.done

cleanup.action:                                   ; preds = %cond.end
  call void @_ZNSt15__exception_ptr13exception_ptrD2Ev(ptr noundef nonnull align 8 dereferenceable(8) %agg.tmp) #17
  br label %cleanup.done

cleanup.done:                                     ; preds = %cleanup.action, %cond.end
  ret void

cleanup.action5:                                  ; preds = %lpad
  call void @_ZNSt15__exception_ptr13exception_ptrD2Ev(ptr noundef nonnull align 8 dereferenceable(8) %agg.tmp) #17
  br label %cleanup.done6

cleanup.done6:                                    ; preds = %cleanup.action5, %lpad
  br label %eh.resume

eh.resume:                                        ; preds = %cleanup.done6
  %exn = load ptr, ptr %exn.slot, align 8
  %sel = load i32, ptr %ehselector.slot, align 4
  %lpad.val = insertvalue { ptr, i32 } poison, ptr %exn, 0
  %lpad.val7 = insertvalue { ptr, i32 } %lpad.val, i32 %sel, 1
  resume { ptr, i32 } %lpad.val7
}

; Function Attrs: mustprogress uwtable
define linkonce_odr void @_ZNK5folly3TryISt6vectorISt4pairINS_5RangeIPKcEES1_IS2_IS6_S6_ESaIS7_EEESaISA_EEE16throwUnlessValueEv(ptr noundef nonnull align 8 dereferenceable(32) %this) #0 comdat align 2 {
entry:
  %this.addr = alloca ptr, align 8
  store ptr %this, ptr %this.addr, align 8
  %this1 = load ptr, ptr %this.addr, align 8
  %contains_ = getelementptr inbounds %"class.folly::detail::TryBase", ptr %this1, i32 0, i32 0
  %0 = load i32, ptr %contains_, align 8
  switch i32 %0, label %sw.default [
    i32 0, label %sw.bb
    i32 1, label %sw.bb2
    i32 2, label %sw.bb3
  ]

sw.bb:                                            ; preds = %entry
  ret void

sw.bb2:                                           ; preds = %entry
  %1 = getelementptr inbounds %"class.folly::detail::TryBase", ptr %this1, i32 0, i32 1
  call void @_ZNK5folly17exception_wrapper15throw_exceptionEv(ptr noundef nonnull align 8 dereferenceable(8) %1) #22
  unreachable

sw.bb3:                                           ; preds = %entry
  br label %sw.default

sw.default:                                       ; preds = %sw.bb3, %entry
  call void @_ZN5folly6detail16throw_exception_INS_21UsingUninitializedTryEJEEEvDpT0_() #24
  unreachable

_ZN5folly15throw_exceptionINS_21UsingUninitializedTryEJEEEvDpOT0_.exit: ; No predecessors!
  unreachable
}

; Function Attrs: mustprogress uwtable
define linkonce_odr noundef nonnull align 8 dereferenceable(24) ptr @_ZNR5folly3TryISt6vectorISt4pairINS_5RangeIPKcEES1_IS2_IS6_S6_ESaIS7_EEESaISA_EEE5valueEv(ptr noundef nonnull align 8 dereferenceable(32) %this) #0 comdat align 2 {
entry:
  %this.addr = alloca ptr, align 8
  store ptr %this, ptr %this.addr, align 8
  %this1 = load ptr, ptr %this.addr, align 8
  call void @_ZNK5folly3TryISt6vectorISt4pairINS_5RangeIPKcEES1_IS2_IS6_S6_ESaIS7_EEESaISA_EEE16throwUnlessValueEv(ptr noundef nonnull align 8 dereferenceable(32) %this1)
  %0 = getelementptr inbounds %"class.folly::detail::TryBase", ptr %this1, i32 0, i32 1
  ret ptr %0
}

; Function Attrs: mustprogress nounwind uwtable
define linkonce_odr noundef zeroext i1 @_ZNK5folly3TryISt6vectorISt4pairINS_5RangeIPKcEES1_IS2_IS6_S6_ESaIS7_EEESaISA_EEE12hasExceptionEv(ptr noundef nonnull align 8 dereferenceable(32) %this) #1 comdat align 2 {
entry:
  %this.addr = alloca ptr, align 8
  store ptr %this, ptr %this.addr, align 8
  %this1 = load ptr, ptr %this.addr, align 8
  %contains_ = getelementptr inbounds %"class.folly::detail::TryBase", ptr %this1, i32 0, i32 0
  %0 = load i32, ptr %contains_, align 8
  %cmp = icmp eq i32 %0, 1
  ret i1 %cmp
}

; Function Attrs: mustprogress uwtable
define noundef zeroext i1 @_ZN8proxygen7RFC261615acceptsEncodingEN5folly5RangeIPKcEES5_(ptr %header.coerce0, ptr %header.coerce1, ptr %encoding.coerce0, ptr %encoding.coerce1) #0 personality ptr @__gxx_personality_v0 {
entry:
  %retval = alloca i1, align 1
  %header = alloca %"class.folly::Range", align 8
  %encoding = alloca %"class.folly::Range", align 8
  %encodings = alloca %"class.folly::Try", align 8
  %agg.tmp = alloca %"class.folly::Range", align 8
  %exn.slot = alloca ptr, align 8
  %ehselector.slot = alloca i32, align 4
  %cleanup.dest.slot = alloca i32, align 4
  %agg.tmp3 = alloca %"class.folly::Range", align 8
  %0 = getelementptr inbounds { ptr, ptr }, ptr %header, i32 0, i32 0
  store ptr %header.coerce0, ptr %0, align 8
  %1 = getelementptr inbounds { ptr, ptr }, ptr %header, i32 0, i32 1
  store ptr %header.coerce1, ptr %1, align 8
  %2 = getelementptr inbounds { ptr, ptr }, ptr %encoding, i32 0, i32 0
  store ptr %encoding.coerce0, ptr %2, align 8
  %3 = getelementptr inbounds { ptr, ptr }, ptr %encoding, i32 0, i32 1
  store ptr %encoding.coerce1, ptr %3, align 8
  call void @llvm.memcpy.p0.p0.i64(ptr align 8 %agg.tmp, ptr align 8 %header, i64 16, i1 false)
  %4 = getelementptr inbounds { ptr, ptr }, ptr %agg.tmp, i32 0, i32 0
  %5 = load ptr, ptr %4, align 8
  %6 = getelementptr inbounds { ptr, ptr }, ptr %agg.tmp, i32 0, i32 1
  %7 = load ptr, ptr %6, align 8
  call void @_ZN8proxygen7RFC261613parseEncodingEN5folly5RangeIPKcEE(ptr sret(%"class.folly::Try") align 8 %encodings, ptr %5, ptr %7)
  %call = invoke noundef zeroext i1 @_ZNK5folly3TryISt6vectorISt4pairINS_5RangeIPKcEES1_IS2_IS6_S6_ESaIS7_EEESaISA_EEE12hasExceptionEv(ptr noundef nonnull align 8 dereferenceable(32) %encodings)
          to label %invoke.cont unwind label %lpad

invoke.cont:                                      ; preds = %entry
  br i1 %call, label %if.then, label %if.end

if.then:                                          ; preds = %invoke.cont
  store i1 false, ptr %retval, align 1
  store i32 1, ptr %cleanup.dest.slot, align 4
  br label %cleanup

lpad:                                             ; preds = %invoke.cont1, %if.end, %entry
  %8 = landingpad { ptr, i32 }
          cleanup
  %9 = extractvalue { ptr, i32 } %8, 0
  store ptr %9, ptr %exn.slot, align 8
  %10 = extractvalue { ptr, i32 } %8, 1
  store i32 %10, ptr %ehselector.slot, align 4
  call void @_ZN5folly3TryISt6vectorISt4pairINS_5RangeIPKcEES1_IS2_IS6_S6_ESaIS7_EEESaISA_EEED2Ev(ptr noundef nonnull align 8 dereferenceable(32) %encodings) #17
  br label %eh.resume

if.end:                                           ; preds = %invoke.cont
  %call2 = invoke noundef nonnull align 8 dereferenceable(24) ptr @_ZNR5folly3TryISt6vectorISt4pairINS_5RangeIPKcEES1_IS2_IS6_S6_ESaIS7_EEESaISA_EEE5valueEv(ptr noundef nonnull align 8 dereferenceable(32) %encodings)
          to label %invoke.cont1 unwind label %lpad

invoke.cont1:                                     ; preds = %if.end
  call void @llvm.memcpy.p0.p0.i64(ptr align 8 %agg.tmp3, ptr align 8 %encoding, i64 16, i1 false)
  %11 = getelementptr inbounds { ptr, ptr }, ptr %agg.tmp3, i32 0, i32 0
  %12 = load ptr, ptr %11, align 8
  %13 = getelementptr inbounds { ptr, ptr }, ptr %agg.tmp3, i32 0, i32 1
  %14 = load ptr, ptr %13, align 8
  %call5 = invoke noundef zeroext i1 @_ZN8proxygen7RFC261615acceptsEncodingERKSt6vectorISt4pairIN5folly5RangeIPKcEES1_IS2_IS7_S7_ESaIS8_EEESaISB_EES7_(ptr noundef nonnull align 8 dereferenceable(24) %call2, ptr %12, ptr %14)
          to label %invoke.cont4 unwind label %lpad

invoke.cont4:                                     ; preds = %invoke.cont1
  store i1 %call5, ptr %retval, align 1
  store i32 1, ptr %cleanup.dest.slot, align 4
  br label %cleanup

cleanup:                                          ; preds = %invoke.cont4, %if.then
  call void @_ZN5folly3TryISt6vectorISt4pairINS_5RangeIPKcEES1_IS2_IS6_S6_ESaIS7_EEESaISA_EEED2Ev(ptr noundef nonnull align 8 dereferenceable(32) %encodings) #17
  %15 = load i1, ptr %retval, align 1
  ret i1 %15

eh.resume:                                        ; preds = %lpad
  %exn = load ptr, ptr %exn.slot, align 8
  %sel = load i32, ptr %ehselector.slot, align 4
  %lpad.val = insertvalue { ptr, i32 } poison, ptr %exn, 0
  %lpad.val6 = insertvalue { ptr, i32 } %lpad.val, i32 %sel, 1
  resume { ptr, i32 } %lpad.val6
}