; Function Attrs: mustprogress uwtable
define noundef zeroext i1 @_ZN8proxygen7RFC261615acceptsEncodingEN5folly5RangeIPKcEES5_(ptr %header.coerce0, ptr %header.coerce1, ptr %encoding.coerce0, ptr %encoding.coerce1) local_unnamed_addr #2 personality ptr @__gxx_personality_v0 {
entry:
  %encodings = alloca %"class.folly::Try", align 8
  call void @_ZN8proxygen7RFC261613parseEncodingEN5folly5RangeIPKcEE(ptr nonnull sret(%"class.folly::Try") align 8 %encodings, ptr %header.coerce0, ptr %header.coerce1)
  %0 = load i32, ptr %encodings, align 8
  switch i32 %0, label %sw.default.i.i [
    i32 1, label %if.then4.i.i
    i32 0, label %invoke.cont1
  ]

lpad:                                             ; preds = %sw.default.i.i, %invoke.cont1
  %1 = landingpad { ptr, i32 }
          cleanup
  call void @_ZN5folly3TryISt6vectorISt4pairINS_5RangeIPKcEES1_IS2_IS6_S6_ESaIS7_EEESaISA_EEED2Ev(ptr noundef nonnull align 8 dereferenceable(32) %encodings) #27
  resume { ptr, i32 } %1

sw.default.i.i:                                   ; preds = %entry
  invoke void @_ZN5folly6detail16throw_exception_INS_21UsingUninitializedTryEJEEEvDpT0_() #29
          to label %.noexc1 unwind label %lpad

.noexc1:                                          ; preds = %sw.default.i.i
  unreachable

invoke.cont1:                                     ; preds = %entry
  %2 = getelementptr inbounds i8, ptr %encodings, i64 8
  %call5 = invoke noundef zeroext i1 @_ZN8proxygen7RFC261615acceptsEncodingERKSt6vectorISt4pairIN5folly5RangeIPKcEES1_IS2_IS7_S7_ESaIS8_EEESaISB_EES7_(ptr noundef nonnull align 8 dereferenceable(24) %2, ptr %encoding.coerce0, ptr %encoding.coerce1)
          to label %cleanup unwind label %lpad

cleanup:                                          ; preds = %invoke.cont1
  %.pr = load i32, ptr %encodings, align 8
  switch i32 %.pr, label %_ZN5folly3TryISt6vectorISt4pairINS_5RangeIPKcEES1_IS2_IS6_S6_ESaIS7_EEESaISA_EEED2Ev.exit [
    i32 0, label %if.then.i.i
    i32 1, label %if.then4.i.i
  ]

if.then.i.i:                                      ; preds = %cleanup
  %3 = load ptr, ptr %2, align 8
  %_M_finish.i.i.i = getelementptr inbounds i8, ptr %encodings, i64 16
  %4 = load ptr, ptr %_M_finish.i.i.i, align 8
  %cmp.not3.i.i.i.i.i.i = icmp eq ptr %3, %4
  br i1 %cmp.not3.i.i.i.i.i.i, label %invoke.cont.i.i.i, label %for.body.i.i.i.i.i.i

for.body.i.i.i.i.i.i:                             ; preds = %if.then.i.i, %_ZSt8_DestroyISt4pairIN5folly5RangeIPKcEESt6vectorIS0_IS5_S5_ESaIS7_EEEEvPT_.exit.i.i.i.i.i.i
  %__first.addr.04.i.i.i.i.i.i = phi ptr [ %incdec.ptr.i.i.i.i.i.i, %_ZSt8_DestroyISt4pairIN5folly5RangeIPKcEESt6vectorIS0_IS5_S5_ESaIS7_EEEEvPT_.exit.i.i.i.i.i.i ], [ %3, %if.then.i.i ]
  %second.i.i.i.i.i.i.i.i = getelementptr inbounds i8, ptr %__first.addr.04.i.i.i.i.i.i, i64 16
  %5 = load ptr, ptr %second.i.i.i.i.i.i.i.i, align 8
  %tobool.not.i.i.i.i.i.i.i.i.i.i.i = icmp eq ptr %5, null
  br i1 %tobool.not.i.i.i.i.i.i.i.i.i.i.i, label %_ZSt8_DestroyISt4pairIN5folly5RangeIPKcEESt6vectorIS0_IS5_S5_ESaIS7_EEEEvPT_.exit.i.i.i.i.i.i, label %if.then.i.i.i.i.i.i.i.i.i.i.i

if.then.i.i.i.i.i.i.i.i.i.i.i:                    ; preds = %for.body.i.i.i.i.i.i
  tail call void @_ZdlPv(ptr noundef nonnull %5) #30
  br label %_ZSt8_DestroyISt4pairIN5folly5RangeIPKcEESt6vectorIS0_IS5_S5_ESaIS7_EEEEvPT_.exit.i.i.i.i.i.i

_ZSt8_DestroyISt4pairIN5folly5RangeIPKcEESt6vectorIS0_IS5_S5_ESaIS7_EEEEvPT_.exit.i.i.i.i.i.i: ; preds = %if.then.i.i.i.i.i.i.i.i.i.i.i, %for.body.i.i.i.i.i.i
  %incdec.ptr.i.i.i.i.i.i = getelementptr inbounds i8, ptr %__first.addr.04.i.i.i.i.i.i, i64 40
  %cmp.not.i.i.i.i.i.i = icmp eq ptr %incdec.ptr.i.i.i.i.i.i, %4
  br i1 %cmp.not.i.i.i.i.i.i, label %invoke.cont.i.i.i, label %for.body.i.i.i.i.i.i, !llvm.loop !32

invoke.cont.i.i.i:                                ; preds = %_ZSt8_DestroyISt4pairIN5folly5RangeIPKcEESt6vectorIS0_IS5_S5_ESaIS7_EEEEvPT_.exit.i.i.i.i.i.i, %if.then.i.i
  %tobool.not.i.i.i.i.i = icmp eq ptr %3, null
  br i1 %tobool.not.i.i.i.i.i, label %_ZN5folly3TryISt6vectorISt4pairINS_5RangeIPKcEES1_IS2_IS6_S6_ESaIS7_EEESaISA_EEED2Ev.exit, label %if.then.i.i.i.i.i

if.then.i.i.i.i.i:                                ; preds = %invoke.cont.i.i.i
  tail call void @_ZdlPv(ptr noundef nonnull %3) #30
  br label %_ZN5folly3TryISt6vectorISt4pairINS_5RangeIPKcEES1_IS2_IS6_S6_ESaIS7_EEESaISA_EEED2Ev.exit

if.then4.i.i:                                     ; preds = %entry, %cleanup
  %retval.03 = phi i1 [ %call5, %cleanup ], [ false, %entry ]
  %6 = getelementptr inbounds i8, ptr %encodings, i64 8
  %7 = load ptr, ptr %6, align 8
  %tobool.not.i.i.i.i = icmp eq ptr %7, null
  br i1 %tobool.not.i.i.i.i, label %_ZN5folly3TryISt6vectorISt4pairINS_5RangeIPKcEES1_IS2_IS6_S6_ESaIS7_EEESaISA_EEED2Ev.exit, label %if.then.i.i.i.i

if.then.i.i.i.i:                                  ; preds = %if.then4.i.i
  call void @_ZNSt15__exception_ptr13exception_ptr10_M_releaseEv(ptr noundef nonnull align 8 dereferenceable(8) %6) #27
  br label %_ZN5folly3TryISt6vectorISt4pairINS_5RangeIPKcEES1_IS2_IS6_S6_ESaIS7_EEESaISA_EEED2Ev.exit

_ZN5folly3TryISt6vectorISt4pairINS_5RangeIPKcEES1_IS2_IS6_S6_ESaIS7_EEESaISA_EEED2Ev.exit: ; preds = %cleanup, %invoke.cont.i.i.i, %if.then.i.i.i.i.i, %if.then4.i.i, %if.then.i.i.i.i
  %retval.04 = phi i1 [ %call5, %cleanup ], [ %call5, %invoke.cont.i.i.i ], [ %call5, %if.then.i.i.i.i.i ], [ %retval.03, %if.then4.i.i ], [ %retval.03, %if.then.i.i.i.i ]
  ret i1 %retval.04
}